; Function Attrs: mustprogress nofree norecurse nosync nounwind willreturn memory(read, inaccessiblemem: none) uwtable
define noundef signext i8 @_ZNK10open_spiel9laser_tag13LaserTagState5fieldEii(ptr nocapture noundef nonnull readonly align 8 dereferenceable(240) %0, i32 noundef %1, i32 noundef %2) local_unnamed_addr #8 align 2 {
  %4 = getelementptr inbounds nuw i8, ptr %0, i64 216
  %5 = getelementptr inbounds nuw i8, ptr %0, i64 64
  %6 = load ptr, ptr %5, align 8
  %7 = getelementptr inbounds nuw i8, ptr %6, i64 4
  %8 = load i32, ptr %7, align 4
  %9 = mul nsw i32 %8, %1
  %10 = add nsw i32 %9, %2
  %11 = sext i32 %10 to i64
  %12 = load ptr, ptr %4, align 8
  %13 = getelementptr inbounds i8, ptr %12, i64 %11
  %14 = load i8, ptr %13, align 1
  ret i8 %14
}